; Function Attrs: inlinehint mustprogress nounwind uwtable
define internal void @"_ZZNK5folly12experimental16EnvironmentState14toPointerArrayEvEN3$_08__invokeEPPc"(ptr noundef %0) #10 align 2 {
  %2 = icmp eq ptr %0, null
  br i1 %2, label %"_ZZNK5folly12experimental16EnvironmentState14toPointerArrayEvENK3$_0clEPPc.exit", label %3

3:                                                ; preds = %1
  tail call void @_ZdaPv(ptr noundef nonnull %0) #25
  br label %"_ZZNK5folly12experimental16EnvironmentState14toPointerArrayEvENK3$_0clEPPc.exit"

"_ZZNK5folly12experimental16EnvironmentState14toPointerArrayEvENK3$_0clEPPc.exit": ; preds = %1, %3
  ret void
}